; Function Attrs: nounwind uwtable
define noalias nonnull ptr @l_Lake_BuildMetadata_ofHash___boxed(ptr noundef %0) local_unnamed_addr #0 {
  %2 = getelementptr i8, ptr %0, i64 8
  %.val = load i64, ptr %2, align 8, !tbaa !13
  %3 = ptrtoint ptr %0 to i64
  %4 = and i64 %3, 1
  %.not = icmp eq i64 %4, 0
  br i1 %.not, label %5, label %lean_dec.exit

5:                                                ; preds = %1
  %6 = load i32, ptr %0, align 4, !tbaa !4
  %7 = icmp sgt i32 %6, 1
  br i1 %7, label %8, label %10, !prof !12

8:                                                ; preds = %5
  %9 = add nsw i32 %6, -1
  store i32 %9, ptr %0, align 4, !tbaa !4
  br label %lean_dec.exit

10:                                               ; preds = %5
  %.not.i = icmp eq i32 %6, 0
  br i1 %.not.i, label %lean_dec.exit, label %11

11:                                               ; preds = %10
  tail call void @lean_dec_ref_cold(ptr noundef nonnull %0) #5
  br label %lean_dec.exit

lean_dec.exit:                                    ; preds = %11, %10, %8, %1
  %12 = load ptr, ptr @l_Lake_platformTrace___closed__3, align 8, !tbaa !9
  tail call void @lean_inc_heartbeat() #5
  %13 = tail call noalias ptr @mi_malloc_small(i64 noundef 16) #5
  %14 = icmp eq ptr %13, null
  br i1 %14, label %15, label %lean_box_uint64.exit.i

15:                                               ; preds = %lean_dec.exit
  tail call void @lean_internal_panic_out_of_memory() #6
  unreachable

lean_box_uint64.exit.i:                           ; preds = %lean_dec.exit
  %16 = getelementptr inbounds nuw i8, ptr %13, i64 4
  store i32 1, ptr %13, align 4, !tbaa !4
  store i32 16, ptr %16, align 4
  %17 = getelementptr inbounds nuw i8, ptr %13, i64 8
  store i64 %.val, ptr %17, align 8, !tbaa !13
  tail call void @lean_inc_heartbeat() #5
  %18 = tail call noalias ptr @mi_malloc_small(i64 noundef 32) #5
  %19 = icmp eq ptr %18, null
  br i1 %19, label %20, label %l_Lake_BuildMetadata_ofHash.exit

20:                                               ; preds = %lean_box_uint64.exit.i
  tail call void @lean_internal_panic_out_of_memory() #6
  unreachable

l_Lake_BuildMetadata_ofHash.exit:                 ; preds = %lean_box_uint64.exit.i
  %21 = getelementptr inbounds nuw i8, ptr %18, i64 4
  store i32 1, ptr %18, align 4, !tbaa !4
  store i32 196640, ptr %21, align 4
  %22 = getelementptr inbounds nuw i8, ptr %18, i64 8
  store ptr %13, ptr %22, align 8, !tbaa !9
  %23 = getelementptr inbounds nuw i8, ptr %18, i64 16
  store ptr %12, ptr %23, align 8, !tbaa !9
  %24 = getelementptr inbounds nuw i8, ptr %18, i64 24
  store ptr %12, ptr %24, align 8, !tbaa !9
  ret ptr %18
}